target datalayout = "e-m:e-p270:32:32-p271:32:32-p272:64:64-i64:64-i128:128-f80:128-n8:16:32:64-S128"
target triple = "x86_64-pc-linux-gnu"

%union.pthread_mutex_t = type { %struct.__pthread_mutex_s }
%struct.__pthread_mutex_s = type { i32, i32, i32, i32, i32, i16, i16, %struct.__pthread_internal_list }
%struct.__pthread_internal_list = type { ptr, ptr }

@cache_mutex = internal global %union.pthread_mutex_t zeroinitializer, align 8
@.str = private unnamed_addr constant [29 x i8] c"%s: pthread_mutex_lock(): %m\00", align 1
@cached_bitstr_len = internal global i64 0, align 8
@.str.2 = private unnamed_addr constant [31 x i8] c"%s: pthread_mutex_unlock(): %m\00", align 1
@.str.3 = private unnamed_addr constant [12 x i8] c"bitstring.c\00", align 1
@__func__.bit_alloc = private unnamed_addr constant [10 x i8] c"bit_alloc\00", align 1
@__func__._cache_pop = private unnamed_addr constant [11 x i8] c"_cache_pop\00", align 1
@cached_bitstr = internal global ptr null, align 8

; Function Attrs: nounwind uwtable
define internal ptr @_cache_pop() #0 {
  %1 = alloca ptr, align 8
  %2 = alloca i32, align 4
  %3 = alloca i32, align 4
  call void @llvm.lifetime.start.p0(i64 8, ptr %1) #12
  store ptr null, ptr %1, align 8
  br label %4

4:                                                ; preds = %0
  call void @llvm.lifetime.start.p0(i64 4, ptr %2) #12
  %5 = call i32 @pthread_mutex_lock(ptr noundef @cache_mutex) #12
  store i32 %5, ptr %2, align 4
  %6 = load i32, ptr %2, align 4
  %7 = icmp ne i32 %6, 0
  br i1 %7, label %8, label %11

8:                                                ; preds = %4
  %9 = load i32, ptr %2, align 4
  %10 = call ptr @__errno_location() #14
  store i32 %9, ptr %10, align 4
  call void (ptr, ...) @fatal_abort(ptr noundef @.str, ptr noundef @__func__._cache_pop) #15
  unreachable

11:                                               ; preds = %4
  call void @llvm.lifetime.end.p0(i64 4, ptr %2) #12
  br label %12

12:                                               ; preds = %11
  br label %13

13:                                               ; preds = %12
  %14 = load ptr, ptr @cached_bitstr, align 8
  %15 = icmp ne ptr %14, null
  br i1 %15, label %16, label %20

16:                                               ; preds = %13
  %17 = load ptr, ptr @cached_bitstr, align 8
  store ptr %17, ptr %1, align 8
  %18 = load ptr, ptr %1, align 8
  %19 = load ptr, ptr %18, align 8
  store ptr %19, ptr @cached_bitstr, align 8
  br label %20

20:                                               ; preds = %16, %13
  br label %21

21:                                               ; preds = %20
  call void @llvm.lifetime.start.p0(i64 4, ptr %3) #12
  %22 = call i32 @pthread_mutex_unlock(ptr noundef @cache_mutex) #12
  store i32 %22, ptr %3, align 4
  %23 = load i32, ptr %3, align 4
  %24 = icmp ne i32 %23, 0
  br i1 %24, label %25, label %28

25:                                               ; preds = %21
  %26 = load i32, ptr %3, align 4
  %27 = call ptr @__errno_location() #14
  store i32 %26, ptr %27, align 4
  call void (ptr, ...) @fatal_abort(ptr noundef @.str.2, ptr noundef @__func__._cache_pop) #15
  unreachable

28:                                               ; preds = %21
  call void @llvm.lifetime.end.p0(i64 4, ptr %3) #12
  br label %29

29:                                               ; preds = %28
  br label %30

30:                                               ; preds = %29
  %31 = load ptr, ptr %1, align 8
  call void @llvm.lifetime.end.p0(i64 8, ptr %1) #12
  ret ptr %31
}

; Function Attrs: nounwind uwtable
define dso_local ptr @bit_alloc(i64 noundef %0) #0 {
  %2 = alloca i64, align 8
  %3 = alloca ptr, align 8
  store i64 %0, ptr %2, align 8
  call void @llvm.lifetime.start.p0(i64 8, ptr %3) #12
  store ptr null, ptr %3, align 8
  br label %4

4:                                                ; preds = %1
  br label %5

5:                                                ; preds = %4
  br label %6

6:                                                ; preds = %5
  %7 = load i64, ptr %2, align 8
  %8 = load i64, ptr @cached_bitstr_len, align 8
  %9 = icmp eq i64 %7, %8
  br i1 %9, label %10, label %12

10:                                               ; preds = %6
  %11 = call ptr @_cache_pop()
  store ptr %11, ptr %3, align 8
  br label %12

12:                                               ; preds = %10, %6
  %13 = load ptr, ptr %3, align 8
  %14 = icmp ne ptr %13, null
  br i1 %14, label %15, label %22

15:                                               ; preds = %12
  %16 = load ptr, ptr %3, align 8
  %17 = load i64, ptr %2, align 8
  %18 = add i64 %17, 63
  %19 = lshr i64 %18, 6
  %20 = add i64 %19, 2
  %21 = mul i64 %20, 8
  call void @llvm.memset.p0.i64(ptr align 8 %16, i8 0, i64 %21, i1 false)
  br label %28

22:                                               ; preds = %12
  %23 = load i64, ptr %2, align 8
  %24 = add i64 %23, 63
  %25 = lshr i64 %24, 6
  %26 = add i64 %25, 2
  %27 = call ptr @slurm_xcalloc(i64 noundef %26, i64 noundef 8, i1 noundef zeroext true, i1 noundef zeroext false, ptr noundef @.str.3, i32 noundef 312, ptr noundef @__func__.bit_alloc)
  store ptr %27, ptr %3, align 8
  br label %28

28:                                               ; preds = %22, %15
  %29 = load ptr, ptr %3, align 8
  %30 = getelementptr inbounds i64, ptr %29, i64 0
  store i64 1111704645, ptr %30, align 8
  %31 = load i64, ptr %2, align 8
  %32 = load ptr, ptr %3, align 8
  %33 = getelementptr inbounds i64, ptr %32, i64 1
  store i64 %31, ptr %33, align 8
  %34 = load ptr, ptr %3, align 8
  call void @llvm.lifetime.end.p0(i64 8, ptr %3) #12
  ret ptr %34
}