; Function Attrs: nounwind uwtable
define dso_local noundef ptr @bit_alloc(i64 noundef %0) #0 {
  %2 = load i64, ptr @cached_bitstr_len, align 8
  %3 = icmp eq i64 %0, %2
  br i1 %3, label %4, label %_cache_pop.exit.thread

4:                                                ; preds = %1
  %5 = tail call i32 @pthread_mutex_lock(ptr noundef nonnull @cache_mutex) #17
  %.not.i = icmp eq i32 %5, 0
  br i1 %.not.i, label %8, label %6

6:                                                ; preds = %4
  %7 = tail call ptr @__errno_location() #18
  store i32 %5, ptr %7, align 4
  tail call void (ptr, ...) @fatal_abort(ptr noundef nonnull @.str, ptr noundef nonnull @__func__._cache_pop) #19
  unreachable

8:                                                ; preds = %4
  %9 = load ptr, ptr @cached_bitstr, align 8
  %.not8.i = icmp eq ptr %9, null
  br i1 %.not8.i, label %10, label %.thread

10:                                               ; preds = %8
  %11 = tail call i32 @pthread_mutex_unlock(ptr noundef nonnull @cache_mutex) #17
  %.not9.i = icmp eq i32 %11, 0
  br i1 %.not9.i, label %_cache_pop.exit.thread, label %14

.thread:                                          ; preds = %8
  %12 = load ptr, ptr %9, align 8
  store ptr %12, ptr @cached_bitstr, align 8
  %13 = tail call i32 @pthread_mutex_unlock(ptr noundef nonnull @cache_mutex) #17
  %.not9.i10 = icmp eq i32 %13, 0
  br i1 %.not9.i10, label %17, label %14

14:                                               ; preds = %.thread, %10
  %15 = phi i32 [ %13, %.thread ], [ %11, %10 ]
  %16 = tail call ptr @__errno_location() #18
  store i32 %15, ptr %16, align 4
  tail call void (ptr, ...) @fatal_abort(ptr noundef nonnull @.str.2, ptr noundef nonnull @__func__._cache_pop) #19
  unreachable

17:                                               ; preds = %.thread
  %18 = add i64 %0, 63
  %19 = lshr i64 %18, 3
  %20 = and i64 %19, 2305843009213693944
  %21 = add nuw nsw i64 %20, 16
  tail call void @llvm.memset.p0.i64(ptr noundef nonnull align 8 dereferenceable(1) %9, i8 0, i64 %21, i1 false)
  br label %26

_cache_pop.exit.thread:                           ; preds = %10, %1
  %22 = add i64 %0, 63
  %23 = lshr i64 %22, 6
  %24 = add nuw nsw i64 %23, 2
  %25 = tail call ptr @slurm_xcalloc(i64 noundef %24, i64 noundef 8, i1 noundef zeroext true, i1 noundef zeroext false, ptr noundef nonnull @.str.3, i32 noundef 312, ptr noundef nonnull @__func__.bit_alloc) #17
  br label %26

26:                                               ; preds = %_cache_pop.exit.thread, %17
  %.1 = phi ptr [ %9, %17 ], [ %25, %_cache_pop.exit.thread ]
  store i64 1111704645, ptr %.1, align 8
  %27 = getelementptr inbounds nuw i8, ptr %.1, i64 8
  store i64 %0, ptr %27, align 8
  ret ptr %.1
}